target datalayout = "e-m:e-p270:32:32-p271:32:32-p272:64:64-i64:64-i128:128-f80:128-n8:16:32:64-S128"
target triple = "x86_64-pc-linux-gnu"

%struct._timelib_time = type { i64, i64, i64, i64, i64, i64, i64, i32, ptr, ptr, i32, %struct._timelib_rel_time, i64, i32, i32, i32, i32, i32, i32, i32, i32, i32 }
%struct._timelib_rel_time = type { i64, i64, i64, i64, i64, i64, i64, i32, i32, i32, i32, i64, %struct.anon, i32, i32 }
%struct.anon = type { i32, i64 }

; Function Attrs: nounwind uwtable
define hidden i32 @timelib_diff_days(ptr noundef %0, ptr noundef %1) #0 {
  %3 = alloca ptr, align 8
  %4 = alloca ptr, align 8
  %5 = alloca i32, align 4
  %6 = alloca ptr, align 8
  %7 = alloca ptr, align 8
  %8 = alloca double, align 8
  %9 = alloca double, align 8
  store ptr %0, ptr %3, align 8, !tbaa !4
  store ptr %1, ptr %4, align 8, !tbaa !4
  call void @llvm.lifetime.start.p0(i64 4, ptr %5) #7
  store i32 0, ptr %5, align 4, !tbaa !51
  %10 = load ptr, ptr %3, align 8, !tbaa !4
  %11 = load ptr, ptr %4, align 8, !tbaa !4
  %12 = call i32 @timelib_same_timezone(ptr noundef %10, ptr noundef %11)
  %13 = icmp ne i32 %12, 0
  br i1 %13, label %14, label %75

14:                                               ; preds = %2
  call void @llvm.lifetime.start.p0(i64 8, ptr %6) #7
  call void @llvm.lifetime.start.p0(i64 8, ptr %7) #7
  call void @llvm.lifetime.start.p0(i64 8, ptr %8) #7
  call void @llvm.lifetime.start.p0(i64 8, ptr %9) #7
  %15 = load ptr, ptr %3, align 8, !tbaa !4
  %16 = load ptr, ptr %4, align 8, !tbaa !4
  %17 = call i32 @timelib_time_compare(ptr noundef %15, ptr noundef %16)
  %18 = icmp slt i32 %17, 0
  br i1 %18, label %19, label %22

19:                                               ; preds = %14
  %20 = load ptr, ptr %3, align 8, !tbaa !4
  store ptr %20, ptr %6, align 8, !tbaa !4
  %21 = load ptr, ptr %4, align 8, !tbaa !4
  store ptr %21, ptr %7, align 8, !tbaa !4
  br label %25

22:                                               ; preds = %14
  %23 = load ptr, ptr %4, align 8, !tbaa !4
  store ptr %23, ptr %6, align 8, !tbaa !4
  %24 = load ptr, ptr %3, align 8, !tbaa !4
  store ptr %24, ptr %7, align 8, !tbaa !4
  br label %25

25:                                               ; preds = %22, %19
  %26 = load ptr, ptr %6, align 8, !tbaa !4
  %27 = getelementptr inbounds nuw %struct._timelib_time, ptr %26, i32 0, i32 3
  %28 = load i64, ptr %27, align 8, !tbaa !38
  %29 = trunc i64 %28 to i32
  %30 = load ptr, ptr %6, align 8, !tbaa !4
  %31 = getelementptr inbounds nuw %struct._timelib_time, ptr %30, i32 0, i32 4
  %32 = load i64, ptr %31, align 8, !tbaa !41
  %33 = trunc i64 %32 to i32
  %34 = load ptr, ptr %6, align 8, !tbaa !4
  %35 = getelementptr inbounds nuw %struct._timelib_time, ptr %34, i32 0, i32 5
  %36 = load i64, ptr %35, align 8, !tbaa !43
  %37 = trunc i64 %36 to i32
  %38 = load ptr, ptr %6, align 8, !tbaa !4
  %39 = getelementptr inbounds nuw %struct._timelib_time, ptr %38, i32 0, i32 6
  %40 = load i64, ptr %39, align 8, !tbaa !46
  %41 = trunc i64 %40 to i32
  call void @timelib_hmsf_to_decimal_hour(i32 noundef %29, i32 noundef %33, i32 noundef %37, i32 noundef %41, ptr noundef %8)
  %42 = load ptr, ptr %7, align 8, !tbaa !4
  %43 = getelementptr inbounds nuw %struct._timelib_time, ptr %42, i32 0, i32 3
  %44 = load i64, ptr %43, align 8, !tbaa !38
  %45 = trunc i64 %44 to i32
  %46 = load ptr, ptr %7, align 8, !tbaa !4
  %47 = getelementptr inbounds nuw %struct._timelib_time, ptr %46, i32 0, i32 4
  %48 = load i64, ptr %47, align 8, !tbaa !41
  %49 = trunc i64 %48 to i32
  %50 = load ptr, ptr %7, align 8, !tbaa !4
  %51 = getelementptr inbounds nuw %struct._timelib_time, ptr %50, i32 0, i32 5
  %52 = load i64, ptr %51, align 8, !tbaa !43
  %53 = trunc i64 %52 to i32
  %54 = load ptr, ptr %7, align 8, !tbaa !4
  %55 = getelementptr inbounds nuw %struct._timelib_time, ptr %54, i32 0, i32 6
  %56 = load i64, ptr %55, align 8, !tbaa !46
  %57 = trunc i64 %56 to i32
  call void @timelib_hmsf_to_decimal_hour(i32 noundef %45, i32 noundef %49, i32 noundef %53, i32 noundef %57, ptr noundef %9)
  %58 = load ptr, ptr %3, align 8, !tbaa !4
  %59 = call i64 @timelib_epoch_days_from_time(ptr noundef %58)
  %60 = load ptr, ptr %4, align 8, !tbaa !4
  %61 = call i64 @timelib_epoch_days_from_time(ptr noundef %60)
  %62 = sub i64 %59, %61
  %63 = call i64 @llvm.abs.i64(i64 %62, i1 false)
  %64 = trunc i64 %63 to i32
  store i32 %64, ptr %5, align 4, !tbaa !51
  %65 = load double, ptr %9, align 8, !tbaa !54
  %66 = load double, ptr %8, align 8, !tbaa !54
  %67 = fcmp olt double %65, %66
  br i1 %67, label %68, label %74

68:                                               ; preds = %25
  %69 = load i32, ptr %5, align 4, !tbaa !51
  %70 = icmp sgt i32 %69, 0
  br i1 %70, label %71, label %74

71:                                               ; preds = %68
  %72 = load i32, ptr %5, align 4, !tbaa !51
  %73 = add i32 %72, -1
  store i32 %73, ptr %5, align 4, !tbaa !51
  br label %74

74:                                               ; preds = %71, %68, %25
  call void @llvm.lifetime.end.p0(i64 8, ptr %9) #7
  call void @llvm.lifetime.end.p0(i64 8, ptr %8) #7
  call void @llvm.lifetime.end.p0(i64 8, ptr %7) #7
  call void @llvm.lifetime.end.p0(i64 8, ptr %6) #7
  br label %88

75:                                               ; preds = %2
  %76 = load ptr, ptr %3, align 8, !tbaa !4
  %77 = getelementptr inbounds nuw %struct._timelib_time, ptr %76, i32 0, i32 12
  %78 = load i64, ptr %77, align 8, !tbaa !50
  %79 = load ptr, ptr %4, align 8, !tbaa !4
  %80 = getelementptr inbounds nuw %struct._timelib_time, ptr %79, i32 0, i32 12
  %81 = load i64, ptr %80, align 8, !tbaa !50
  %82 = sub i64 %78, %81
  %83 = sitofp i64 %82 to double
  %84 = call double @llvm.floor.f64(double %83)
  %85 = fdiv double %84, 8.640000e+04
  %86 = call double @llvm.fabs.f64(double %85)
  %87 = fptosi double %86 to i32
  store i32 %87, ptr %5, align 4, !tbaa !51
  br label %88

88:                                               ; preds = %75, %74
  %89 = load i32, ptr %5, align 4, !tbaa !51
  call void @llvm.lifetime.end.p0(i64 4, ptr %5) #7
  ret i32 %89
}