; Function Attrs: nounwind uwtable
define hidden i32 @timelib_diff_days(ptr noundef %0, ptr noundef %1) local_unnamed_addr #0 {
  %3 = alloca double, align 8
  %4 = alloca double, align 8
  %5 = tail call i32 @timelib_same_timezone(ptr noundef %0, ptr noundef %1) #9
  %.not = icmp eq i32 %5, 0
  br i1 %.not, label %43, label %6

6:                                                ; preds = %2
  call void @llvm.lifetime.start.p0(i64 8, ptr nonnull %3) #9
  call void @llvm.lifetime.start.p0(i64 8, ptr nonnull %4) #9
  %7 = tail call i32 @timelib_time_compare(ptr noundef %0, ptr noundef %1) #9
  %8 = icmp slt i32 %7, 0
  %. = select i1 %8, ptr %0, ptr %1
  %.26 = select i1 %8, ptr %1, ptr %0
  %9 = getelementptr inbounds nuw i8, ptr %., i64 24
  %10 = load i64, ptr %9, align 8, !tbaa !37
  %11 = trunc i64 %10 to i32
  %12 = getelementptr inbounds nuw i8, ptr %., i64 32
  %13 = load i64, ptr %12, align 8, !tbaa !39
  %14 = trunc i64 %13 to i32
  %15 = getelementptr inbounds nuw i8, ptr %., i64 40
  %16 = load i64, ptr %15, align 8, !tbaa !41
  %17 = trunc i64 %16 to i32
  %18 = getelementptr inbounds nuw i8, ptr %., i64 48
  %19 = load i64, ptr %18, align 8, !tbaa !43
  %20 = trunc i64 %19 to i32
  call void @timelib_hmsf_to_decimal_hour(i32 noundef %11, i32 noundef %14, i32 noundef %17, i32 noundef %20, ptr noundef nonnull %3) #9
  %21 = getelementptr inbounds nuw i8, ptr %.26, i64 24
  %22 = load i64, ptr %21, align 8, !tbaa !37
  %23 = trunc i64 %22 to i32
  %24 = getelementptr inbounds nuw i8, ptr %.26, i64 32
  %25 = load i64, ptr %24, align 8, !tbaa !39
  %26 = trunc i64 %25 to i32
  %27 = getelementptr inbounds nuw i8, ptr %.26, i64 40
  %28 = load i64, ptr %27, align 8, !tbaa !41
  %29 = trunc i64 %28 to i32
  %30 = getelementptr inbounds nuw i8, ptr %.26, i64 48
  %31 = load i64, ptr %30, align 8, !tbaa !43
  %32 = trunc i64 %31 to i32
  call void @timelib_hmsf_to_decimal_hour(i32 noundef %23, i32 noundef %26, i32 noundef %29, i32 noundef %32, ptr noundef nonnull %4) #9
  %33 = call i64 @timelib_epoch_days_from_time(ptr noundef %0) #9
  %34 = call i64 @timelib_epoch_days_from_time(ptr noundef %1) #9
  %35 = sub i64 %33, %34
  %36 = call i64 @llvm.abs.i64(i64 %35, i1 false)
  %37 = trunc i64 %36 to i32
  %38 = load double, ptr %4, align 8, !tbaa !50
  %39 = load double, ptr %3, align 8, !tbaa !50
  %40 = fcmp olt double %38, %39
  %41 = icmp sgt i32 %37, 0
  %or.cond = select i1 %40, i1 %41, i1 false
  %42 = sext i1 %or.cond to i32
  %.024 = add nsw i32 %42, %37
  call void @llvm.lifetime.end.p0(i64 8, ptr nonnull %4) #9
  call void @llvm.lifetime.end.p0(i64 8, ptr nonnull %3) #9
  br label %53

43:                                               ; preds = %2
  %44 = getelementptr inbounds nuw i8, ptr %0, i64 192
  %45 = load i64, ptr %44, align 8, !tbaa !46
  %46 = getelementptr inbounds nuw i8, ptr %1, i64 192
  %47 = load i64, ptr %46, align 8, !tbaa !46
  %48 = sub i64 %45, %47
  %49 = sitofp i64 %48 to double
  %50 = fdiv double %49, 8.640000e+04
  %51 = tail call double @llvm.fabs.f64(double %50)
  %52 = fptosi double %51 to i32
  br label %53

53:                                               ; preds = %43, %6
  %.1 = phi i32 [ %.024, %6 ], [ %52, %43 ]
  ret i32 %.1
}